target datalayout = "e-m:e-p270:32:32-p271:32:32-p272:64:64-i64:64-i128:128-f80:128-n8:16:32:64-S128"
target triple = "x86_64-pc-linux-gnu"

%struct.Msat_Solver_t_ = type { i32, i32, ptr, ptr, double, double, ptr, ptr, double, double, ptr, ptr, ptr, i32, i32, ptr, ptr, ptr, ptr, ptr, ptr, i32, double, i32, double, ptr, ptr, ptr, ptr, i32, ptr, ptr, ptr, ptr, %struct.Msat_SolverStats_t_, i32, i32, i32, i32, i32, i32 }
%struct.Msat_SolverStats_t_ = type { i64, i64, i64, i64, i64, i64 }

; Function Attrs: nounwind uwtable
define double @Msat_SolverProgressEstimate(ptr noundef %0) #0 {
  %2 = alloca ptr, align 8
  %3 = alloca double, align 8
  %4 = alloca double, align 8
  %5 = alloca i32, align 4
  store ptr %0, ptr %2, align 8, !tbaa !3
  call void @llvm.lifetime.start.p0(i64 8, ptr %3) #6
  store double 0.000000e+00, ptr %3, align 8, !tbaa !31
  call void @llvm.lifetime.start.p0(i64 8, ptr %4) #6
  %6 = load ptr, ptr %2, align 8, !tbaa !3
  %7 = getelementptr inbounds nuw %struct.Msat_Solver_t_, ptr %6, i32 0, i32 13
  %8 = load i32, ptr %7, align 8, !tbaa !10
  %9 = sitofp i32 %8 to double
  %10 = fdiv double 1.000000e+00, %9
  store double %10, ptr %4, align 8, !tbaa !31
  call void @llvm.lifetime.start.p0(i64 4, ptr %5) #6
  store i32 0, ptr %5, align 4, !tbaa !8
  br label %11

11:                                               ; preds = %40, %1
  %12 = load i32, ptr %5, align 4, !tbaa !8
  %13 = load ptr, ptr %2, align 8, !tbaa !3
  %14 = getelementptr inbounds nuw %struct.Msat_Solver_t_, ptr %13, i32 0, i32 13
  %15 = load i32, ptr %14, align 8, !tbaa !10
  %16 = icmp slt i32 %12, %15
  br i1 %16, label %17, label %43

17:                                               ; preds = %11
  %18 = load ptr, ptr %2, align 8, !tbaa !3
  %19 = getelementptr inbounds nuw %struct.Msat_Solver_t_, ptr %18, i32 0, i32 15
  %20 = load ptr, ptr %19, align 8, !tbaa !32
  %21 = load i32, ptr %5, align 4, !tbaa !8
  %22 = sext i32 %21 to i64
  %23 = getelementptr inbounds i32, ptr %20, i64 %22
  %24 = load i32, ptr %23, align 4, !tbaa !8
  %25 = icmp ne i32 %24, -1
  br i1 %25, label %26, label %39

26:                                               ; preds = %17
  %27 = load double, ptr %4, align 8, !tbaa !31
  %28 = load ptr, ptr %2, align 8, !tbaa !3
  %29 = getelementptr inbounds nuw %struct.Msat_Solver_t_, ptr %28, i32 0, i32 20
  %30 = load ptr, ptr %29, align 8, !tbaa !26
  %31 = load i32, ptr %5, align 4, !tbaa !8
  %32 = sext i32 %31 to i64
  %33 = getelementptr inbounds i32, ptr %30, i64 %32
  %34 = load i32, ptr %33, align 4, !tbaa !8
  %35 = sitofp i32 %34 to double
  %36 = call double @pow(double noundef %27, double noundef %35) #6, !tbaa !8
  %37 = load double, ptr %3, align 8, !tbaa !31
  %38 = fadd double %37, %36
  store double %38, ptr %3, align 8, !tbaa !31
  br label %39

39:                                               ; preds = %26, %17
  br label %40

40:                                               ; preds = %39
  %41 = load i32, ptr %5, align 4, !tbaa !8
  %42 = add nsw i32 %41, 1
  store i32 %42, ptr %5, align 4, !tbaa !8
  br label %11, !llvm.loop !33

43:                                               ; preds = %11
  %44 = load double, ptr %3, align 8, !tbaa !31
  %45 = load ptr, ptr %2, align 8, !tbaa !3
  %46 = getelementptr inbounds nuw %struct.Msat_Solver_t_, ptr %45, i32 0, i32 13
  %47 = load i32, ptr %46, align 8, !tbaa !10
  %48 = sitofp i32 %47 to double
  %49 = fdiv double %44, %48
  call void @llvm.lifetime.end.p0(i64 4, ptr %5) #6
  call void @llvm.lifetime.end.p0(i64 8, ptr %4) #6
  call void @llvm.lifetime.end.p0(i64 8, ptr %3) #6
  ret double %49
}