; Function Attrs: nofree nounwind memory(readwrite, inaccessiblemem: write) uwtable
define double @Msat_SolverProgressEstimate(ptr noundef readonly captures(none) %0) local_unnamed_addr #3 {
  %2 = getelementptr inbounds nuw i8, ptr %0, i64 96
  %3 = load i32, ptr %2, align 8, !tbaa !3
  %4 = sitofp i32 %3 to double
  %5 = fdiv double 1.000000e+00, %4
  %6 = icmp sgt i32 %3, 0
  br i1 %6, label %.lr.ph, label %._crit_edge

.lr.ph:                                           ; preds = %1
  %7 = getelementptr inbounds nuw i8, ptr %0, i64 104
  %8 = load ptr, ptr %7, align 8, !tbaa !28
  %9 = getelementptr inbounds nuw i8, ptr %0, i64 144
  br label %10

10:                                               ; preds = %.lr.ph, %21
  %11 = phi i32 [ %3, %.lr.ph ], [ %22, %21 ]
  %indvars.iv = phi i64 [ 0, %.lr.ph ], [ %indvars.iv.next, %21 ]
  %.01113 = phi double [ 0.000000e+00, %.lr.ph ], [ %.1, %21 ]
  %12 = getelementptr inbounds nuw i32, ptr %8, i64 %indvars.iv
  %13 = load i32, ptr %12, align 4, !tbaa !24
  %.not = icmp eq i32 %13, -1
  br i1 %.not, label %21, label %14

14:                                               ; preds = %10
  %15 = load ptr, ptr %9, align 8, !tbaa !23
  %16 = getelementptr inbounds nuw i32, ptr %15, i64 %indvars.iv
  %17 = load i32, ptr %16, align 4, !tbaa !24
  %18 = sitofp i32 %17 to double
  %19 = tail call double @pow(double noundef %5, double noundef %18) #8, !tbaa !24
  %20 = fadd double %.01113, %19
  %.pre = load i32, ptr %2, align 8, !tbaa !3
  br label %21

21:                                               ; preds = %10, %14
  %22 = phi i32 [ %.pre, %14 ], [ %11, %10 ]
  %.1 = phi double [ %20, %14 ], [ %.01113, %10 ]
  %indvars.iv.next = add nuw nsw i64 %indvars.iv, 1
  %23 = sext i32 %22 to i64
  %24 = icmp slt i64 %indvars.iv.next, %23
  br i1 %24, label %10, label %._crit_edge.loopexit, !llvm.loop !29

._crit_edge.loopexit:                             ; preds = %21
  %.pre18 = sitofp i32 %22 to double
  br label %._crit_edge

._crit_edge:                                      ; preds = %._crit_edge.loopexit, %1
  %.pre-phi = phi double [ %.pre18, %._crit_edge.loopexit ], [ %4, %1 ]
  %.011.lcssa = phi double [ %.1, %._crit_edge.loopexit ], [ 0.000000e+00, %1 ]
  %25 = fdiv double %.011.lcssa, %.pre-phi
  ret double %25
}